; Listing generated by Microsoft (R) Optimizing Compiler Version 13.00.9466 

	TITLE	Kernel.cpp
	.386P
include listing.inc
if @Version gt 510
.model FLAT
else
_TEXT	SEGMENT PARA USE32 PUBLIC 'CODE'
_TEXT	ENDS
_DATA	SEGMENT DWORD USE32 PUBLIC 'DATA'
_DATA	ENDS
CONST	SEGMENT DWORD USE32 PUBLIC 'CONST'
CONST	ENDS
_BSS	SEGMENT DWORD USE32 PUBLIC 'BSS'
_BSS	ENDS
$$SYMBOLS	SEGMENT BYTE USE32 'DEBSYM'
$$SYMBOLS	ENDS
$$TYPES	SEGMENT BYTE USE32 'DEBTYP'
$$TYPES	ENDS
_TLS	SEGMENT DWORD USE32 PUBLIC 'TLS'
_TLS	ENDS
;	COMDAT ??0ProcessNode@@QAE@XZ
_TEXT	SEGMENT PARA USE32 PUBLIC 'CODE'
_TEXT	ENDS
;	COMDAT ?ProcessEntry@Kernel@@UAEXPAPAX@Z
_TEXT	SEGMENT PARA USE32 PUBLIC 'CODE'
_TEXT	ENDS
;	COMDAT ??0Kernel@@QAE@PAX0@Z
_TEXT	SEGMENT PARA USE32 PUBLIC 'CODE'
_TEXT	ENDS
;	COMDAT ??1Kernel@@QAE@XZ
_TEXT	SEGMENT PARA USE32 PUBLIC 'CODE'
_TEXT	ENDS
;	COMDAT ??_7Kernel@@6B@
CONST	SEGMENT DWORD USE32 PUBLIC 'CONST'
CONST	ENDS
FLAT	GROUP _DATA, CONST, _BSS
	ASSUME	CS: FLAT, DS: FLAT, SS: FLAT
endif

INCLUDELIB LIBC
INCLUDELIB OLDNAMES

PUBLIC	??0Kernel@@QAE@PAX0@Z				; Kernel::Kernel
PUBLIC	?ProcessEntry@Kernel@@UAEXPAPAX@Z		; Kernel::ProcessEntry
PUBLIC	??_7Kernel@@6B@					; Kernel::`vftable'
EXTRN	??0Process@@QAE@PAX0@Z:NEAR			; Process::Process
;	COMDAT ??_7Kernel@@6B@
; File d:\my documents\projects\ooos\current\ooos\kernel.cpp
CONST	SEGMENT
??_7Kernel@@6B@ DD FLAT:?ProcessEntry@Kernel@@UAEXPAPAX@Z ; Kernel::`vftable'
; Function compile flags: /Ogty
CONST	ENDS
;	COMDAT ??0Kernel@@QAE@PAX0@Z
_TEXT	SEGMENT
_Start$ = 8
_End$ = 12
??0Kernel@@QAE@PAX0@Z PROC NEAR				; Kernel::Kernel, COMDAT
; _this$ = ecx

; 4    : {

  00000	8b 44 24 08	 mov	 eax, DWORD PTR _End$[esp-4]
  00004	56		 push	 esi
  00005	8b f1		 mov	 esi, ecx
  00007	8b 4c 24 08	 mov	 ecx, DWORD PTR _Start$[esp]
  0000b	50		 push	 eax
  0000c	51		 push	 ecx
  0000d	8b ce		 mov	 ecx, esi
  0000f	e8 00 00 00 00	 call	 ??0Process@@QAE@PAX0@Z	; Process::Process
  00014	c7 06 00 00 00
	00		 mov	 DWORD PTR [esi], OFFSET FLAT:??_7Kernel@@6B@

; 5    : }

  0001a	8b c6		 mov	 eax, esi
  0001c	5e		 pop	 esi
  0001d	c2 08 00	 ret	 8
??0Kernel@@QAE@PAX0@Z ENDP				; Kernel::Kernel
; Function compile flags: /Ogty
; File d:\my documents\projects\ooos\current\ooos\kernel.h
_TEXT	ENDS
;	COMDAT ?ProcessEntry@Kernel@@UAEXPAPAX@Z
_TEXT	SEGMENT
_args$ = 8
?ProcessEntry@Kernel@@UAEXPAPAX@Z PROC NEAR		; Kernel::ProcessEntry, COMDAT
; _this$ = ecx

; 10   : 	void ProcessEntry(void ** args) {};

  00000	c2 04 00	 ret	 4
?ProcessEntry@Kernel@@UAEXPAPAX@Z ENDP			; Kernel::ProcessEntry
_TEXT	ENDS
PUBLIC	??1Kernel@@QAE@XZ				; Kernel::~Kernel
EXTRN	??1Process@@QAE@XZ:NEAR				; Process::~Process
; Function compile flags: /Ogty
; File d:\my documents\projects\ooos\current\ooos\kernel.cpp
;	COMDAT ??1Kernel@@QAE@XZ
_TEXT	SEGMENT
??1Kernel@@QAE@XZ PROC NEAR				; Kernel::~Kernel, COMDAT
; _this$ = ecx

; 8    : {

  00000	c7 01 00 00 00
	00		 mov	 DWORD PTR [ecx], OFFSET FLAT:??_7Kernel@@6B@

; 9    : }

  00006	e9 00 00 00 00	 jmp	 ??1Process@@QAE@XZ	; Process::~Process
??1Kernel@@QAE@XZ ENDP					; Kernel::~Kernel
_TEXT	ENDS
END
